target datalayout = "e-m:e-p270:32:32-p271:32:32-p272:64:64-i64:64-i128:128-f80:128-n8:16:32:64-S128"
target triple = "x86_64-pc-linux-gnu"

@.str.1168 = private unnamed_addr constant [7 x i8] c"%s: %d\00", align 1
@.str.1169 = private unnamed_addr constant [8 x i8] c", %s=%d\00", align 1

; Function Attrs: null_pointer_is_valid sspstrong uwtable
define internal zeroext i16 @add_item_value_uint16(ptr noundef %0, ptr noundef %1, ptr noundef %2, i32 noundef %3, i32 noundef %4, ptr noundef %5) #0 {
  %7 = alloca ptr, align 8
  %8 = alloca ptr, align 8
  %9 = alloca ptr, align 8
  %10 = alloca i32, align 4
  %11 = alloca i32, align 4
  %12 = alloca ptr, align 8
  store ptr %0, ptr %7, align 8
  store ptr %1, ptr %8, align 8
  store ptr %2, ptr %9, align 8
  store i32 %3, ptr %10, align 4
  store i32 %4, ptr %11, align 4
  store ptr %5, ptr %12, align 8
  %13 = load ptr, ptr %9, align 8
  %14 = load i32, ptr %10, align 4
  %15 = load ptr, ptr %7, align 8
  %16 = load i32, ptr %11, align 4
  %17 = load ptr, ptr %12, align 8
  %18 = load ptr, ptr %7, align 8
  %19 = load i32, ptr %11, align 4
  %20 = call zeroext i16 @tvb_get_ntohs(ptr noundef %18, i32 noundef %19)
  %21 = zext i16 %20 to i32
  %22 = call ptr (ptr, i32, ptr, i32, i32, ptr, ...) @proto_tree_add_none_format(ptr noundef %13, i32 noundef %14, ptr noundef %15, i32 noundef %16, i32 noundef 2, ptr noundef @.str.1168, ptr noundef %17, i32 noundef %21)
  %23 = load ptr, ptr %8, align 8
  %24 = load ptr, ptr %12, align 8
  %25 = load ptr, ptr %7, align 8
  %26 = load i32, ptr %11, align 4
  %27 = call zeroext i16 @tvb_get_ntohs(ptr noundef %25, i32 noundef %26)
  %28 = zext i16 %27 to i32
  call void (ptr, ptr, ...) @proto_item_append_text(ptr noundef %23, ptr noundef @.str.1169, ptr noundef %24, i32 noundef %28)
  %29 = load ptr, ptr %7, align 8
  %30 = load i32, ptr %11, align 4
  %31 = call zeroext i16 @tvb_get_ntohs(ptr noundef %29, i32 noundef %30)
  ret i16 %31
}