; Function Attrs: null_pointer_is_valid sspstrong uwtable
define internal fastcc void @add_item_value_uint16(ptr noundef %0, ptr noundef %1, ptr noundef %2, i32 noundef %3, i32 noundef %4, ptr noundef %5) unnamed_addr #0 {
  %7 = tail call zeroext i16 @tvb_get_ntohs(ptr noundef %0, i32 noundef %4)
  %8 = zext i16 %7 to i32
  %9 = tail call ptr (ptr, i32, ptr, i32, i32, ptr, ...) @proto_tree_add_none_format(ptr noundef %2, i32 noundef %3, ptr noundef %0, i32 noundef %4, i32 noundef 2, ptr noundef nonnull @.str.1168, ptr noundef %5, i32 noundef %8)
  %10 = tail call zeroext i16 @tvb_get_ntohs(ptr noundef %0, i32 noundef %4)
  %11 = zext i16 %10 to i32
  tail call void (ptr, ptr, ...) @proto_item_append_text(ptr noundef %1, ptr noundef nonnull @.str.1169, ptr noundef %5, i32 noundef %11)
  %12 = tail call zeroext i16 @tvb_get_ntohs(ptr noundef %0, i32 noundef %4)
  ret void
}